; Function Attrs: mustprogress uwtable
define void @_ZN9syscall_t9do_chrootB5cxx11EPKc(ptr dead_on_unwind noalias writable sret(%"class.std::__cxx11::basic_string") align 8 %0, ptr noundef nonnull align 8 dereferenceable(176) %1, ptr noundef %2) local_unnamed_addr #3 align 2 personality ptr @__gxx_personality_v0 {
  %4 = alloca %"class.std::allocator.20", align 1
  %5 = getelementptr inbounds i8, ptr %1, i64 144
  %6 = getelementptr inbounds i8, ptr %1, i64 152
  %7 = load i64, ptr %6, align 8
  %8 = icmp eq i64 %7, 0
  br i1 %8, label %13, label %9

9:                                                ; preds = %3
  %10 = load i8, ptr %2, align 1
  %11 = icmp eq i8 %10, 47
  br i1 %11, label %12, label %13

12:                                               ; preds = %9
  tail call void @_ZStplIcSt11char_traitsIcESaIcEENSt7__cxx1112basic_stringIT_T0_T1_EERKS8_PKS5_(ptr dead_on_unwind writable sret(%"class.std::__cxx11::basic_string") align 8 %0, ptr noundef nonnull align 8 dereferenceable(32) %5, ptr noundef nonnull %2)
  br label %17

13:                                               ; preds = %9, %3
  call void @_ZNSaIcEC1Ev(ptr noundef nonnull align 1 dereferenceable(1) %4) #26
  invoke void @_ZNSt7__cxx1112basic_stringIcSt11char_traitsIcESaIcEEC2IS3_EEPKcRKS3_(ptr noundef nonnull align 8 dereferenceable(32) %0, ptr noundef %2, ptr noundef nonnull align 1 dereferenceable(1) %4)
          to label %14 unwind label %15

14:                                               ; preds = %13
  call void @_ZNSaIcED1Ev(ptr noundef nonnull align 1 dereferenceable(1) %4) #26
  br label %17

15:                                               ; preds = %13
  %16 = landingpad { ptr, i32 }
          cleanup
  call void @_ZNSaIcED1Ev(ptr noundef nonnull align 1 dereferenceable(1) %4) #26
  resume { ptr, i32 } %16

17:                                               ; preds = %14, %12
  ret void
}